; Function Attrs: nounwind uwtable
define internal void @finalize() #0 {
  %1 = load i32, ptr getelementptr inbounds nuw (i8, ptr @pmix_mca_bfrops_v51_component, i64 360), align 8, !tbaa !30
  %2 = icmp sgt i32 %1, 0
  br i1 %2, label %pmix_pointer_array_get_item.exit.preheader, label %._crit_edge

pmix_pointer_array_get_item.exit.preheader:       ; preds = %0
  %.pre15 = load ptr, ptr getelementptr inbounds nuw (i8, ptr @pmix_mca_bfrops_v51_component, i64 384), align 8, !tbaa !35
  br label %pmix_pointer_array_get_item.exit

pmix_pointer_array_get_item.exit:                 ; preds = %pmix_pointer_array_get_item.exit.preheader, %34
  %3 = phi i32 [ %1, %pmix_pointer_array_get_item.exit.preheader ], [ %35, %34 ]
  %4 = phi ptr [ %.pre15, %pmix_pointer_array_get_item.exit.preheader ], [ %36, %34 ]
  %indvars.iv = phi i64 [ 0, %pmix_pointer_array_get_item.exit.preheader ], [ %indvars.iv.next, %34 ]
  %5 = getelementptr inbounds nuw ptr, ptr %4, i64 %indvars.iv
  %6 = load ptr, ptr %5, align 8, !tbaa !19
  %.not = icmp eq ptr %6, null
  br i1 %.not, label %34, label %7

7:                                                ; preds = %pmix_pointer_array_get_item.exit
  %8 = tail call i32 @pthread_mutex_lock(ptr noundef nonnull %6) #14
  %9 = icmp eq i32 %8, 35
  br i1 %9, label %10, label %pmix_obj_update.exit

10:                                               ; preds = %7
  %11 = tail call ptr @__errno_location() #15
  store i32 35, ptr %11, align 4, !tbaa !12
  tail call void @perror(ptr noundef nonnull @.str.75) #16
  tail call void @abort() #17
  unreachable

pmix_obj_update.exit:                             ; preds = %7
  %12 = getelementptr inbounds nuw i8, ptr %6, i64 48
  %13 = load i32, ptr %12, align 8, !tbaa !17
  %14 = add nsw i32 %13, -1
  store i32 %14, ptr %12, align 8, !tbaa !17
  %15 = tail call i32 @pthread_mutex_unlock(ptr noundef nonnull %6) #14
  %16 = icmp eq i32 %14, 0
  br i1 %16, label %17, label %31

17:                                               ; preds = %pmix_obj_update.exit
  %18 = getelementptr inbounds nuw i8, ptr %6, i64 40
  %19 = load ptr, ptr %18, align 8, !tbaa !14
  %20 = getelementptr inbounds nuw i8, ptr %19, i64 48
  %21 = load ptr, ptr %20, align 8, !tbaa !36
  %22 = load ptr, ptr %21, align 8, !tbaa !19
  %.not6.i = icmp eq ptr %22, null
  br i1 %.not6.i, label %pmix_obj_run_destructors.exit, label %.lr.ph.i

.lr.ph.i:                                         ; preds = %17, %.lr.ph.i
  %23 = phi ptr [ %25, %.lr.ph.i ], [ %22, %17 ]
  %.07.i = phi ptr [ %24, %.lr.ph.i ], [ %21, %17 ]
  tail call void %23(ptr noundef nonnull %6) #14
  %24 = getelementptr inbounds nuw i8, ptr %.07.i, i64 8
  %25 = load ptr, ptr %24, align 8, !tbaa !19
  %.not.i12 = icmp eq ptr %25, null
  br i1 %.not.i12, label %pmix_obj_run_destructors.exit, label %.lr.ph.i, !llvm.loop !37

pmix_obj_run_destructors.exit:                    ; preds = %.lr.ph.i, %17
  %26 = getelementptr inbounds nuw i8, ptr %6, i64 96
  %27 = load ptr, ptr %26, align 8, !tbaa !38
  %.not11 = icmp eq ptr %27, null
  br i1 %.not11, label %30, label %28

28:                                               ; preds = %pmix_obj_run_destructors.exit
  %29 = getelementptr inbounds nuw i8, ptr %6, i64 56
  tail call void %27(ptr noundef nonnull %29, ptr noundef nonnull %6) #14
  br label %31

30:                                               ; preds = %pmix_obj_run_destructors.exit
  tail call void @free(ptr noundef nonnull %6) #14
  br label %31

31:                                               ; preds = %28, %30, %pmix_obj_update.exit
  %32 = trunc nuw nsw i64 %indvars.iv to i32
  %33 = tail call i32 @pmix_pointer_array_set_item(ptr noundef nonnull getelementptr inbounds nuw (i8, ptr @pmix_mca_bfrops_v51_component, i64 232), i32 noundef %32, ptr noundef null) #14
  %.pre = load ptr, ptr getelementptr inbounds nuw (i8, ptr @pmix_mca_bfrops_v51_component, i64 384), align 8, !tbaa !35
  %.pre16 = load i32, ptr getelementptr inbounds nuw (i8, ptr @pmix_mca_bfrops_v51_component, i64 360), align 8, !tbaa !30
  br label %34

34:                                               ; preds = %pmix_pointer_array_get_item.exit, %31
  %35 = phi i32 [ %3, %pmix_pointer_array_get_item.exit ], [ %.pre16, %31 ]
  %36 = phi ptr [ %4, %pmix_pointer_array_get_item.exit ], [ %.pre, %31 ]
  %indvars.iv.next = add nuw nsw i64 %indvars.iv, 1
  %37 = sext i32 %35 to i64
  %38 = icmp slt i64 %indvars.iv.next, %37
  br i1 %38, label %pmix_pointer_array_get_item.exit, label %._crit_edge, !llvm.loop !39

._crit_edge:                                      ; preds = %34, %0
  ret void
}